target datalayout = "e-m:e-p270:32:32-p271:32:32-p272:64:64-i64:64-i128:128-f80:128-n8:16:32:64-S128"
target triple = "x86_64-pc-linux-gnu"

%struct._zend_array = type { %struct._zend_refcounted_h, %union.anon.0, i32, %union.anon.1, i32, i32, i32, i32, i64, ptr }
%struct._zend_refcounted_h = type { i32, %union.anon }
%union.anon = type { i32 }
%union.anon.0 = type { i32 }
%union.anon.1 = type { ptr }
%struct._zval_struct = type { %union._zend_value, %union.anon.4, %union.anon.7 }
%union._zend_value = type { i64 }
%union.anon.4 = type { i32 }
%union.anon.7 = type { i32 }
%struct._zend_op_array = type { i8, [3 x i8], i32, ptr, ptr, ptr, i32, i32, ptr, ptr, ptr, ptr, i32, i32, i32, i32, ptr, ptr, ptr, ptr, ptr, i32, i32, ptr, ptr, ptr, i32, i32, i32, i32, ptr, ptr, [6 x ptr] }
%struct._zend_persistent_script = type { %struct._zend_script, i64, i32, i64, i8, i8, i8, i32, i32, ptr, ptr, ptr, i64, %struct.zend_persistent_script_dynamic_members }
%struct._zend_script = type { ptr, %struct._zend_op_array, %struct._zend_array, %struct._zend_array }
%struct.zend_persistent_script_dynamic_members = type { i64, i64, i32, i64 }
%struct._zend_accel_shared_globals = type { i64, i64, i64, i64, i64, i64, %struct._zend_accel_hash, i64, i64, i64, i64, i8, i8, i32, i8, i8, i8, ptr, ptr, [2 x i32], ptr, ptr, %struct._zend_string_table }
%struct._zend_accel_hash = type { ptr, ptr, i32, i32, i32 }
%struct._zend_string_table = type { i32, i32, ptr, ptr, ptr, ptr }

@accel_shared_globals = external global ptr, align 8

; Function Attrs: nounwind uwtable
define internal void @zend_file_cache_serialize_func(ptr noundef %0, ptr noundef %1, ptr noundef %2, ptr noundef %3) #0 {
  %5 = alloca ptr, align 8
  %6 = alloca ptr, align 8
  %7 = alloca ptr, align 8
  %8 = alloca ptr, align 8
  %9 = alloca ptr, align 8
  store ptr %0, ptr %5, align 8
  store ptr %1, ptr %6, align 8
  store ptr %2, ptr %7, align 8
  store ptr %3, ptr %8, align 8
  br label %10

10:                                               ; preds = %4
  %11 = load ptr, ptr %5, align 8
  %12 = getelementptr inbounds %struct._zval_struct, ptr %11, i32 0, i32 0
  %13 = load ptr, ptr %12, align 8
  %14 = icmp ne ptr %13, null
  br i1 %14, label %15, label %69

15:                                               ; preds = %10
  %16 = load ptr, ptr %5, align 8
  %17 = getelementptr inbounds %struct._zval_struct, ptr %16, i32 0, i32 0
  %18 = load ptr, ptr %17, align 8
  %19 = load ptr, ptr %6, align 8
  %20 = getelementptr inbounds %struct._zend_persistent_script, ptr %19, i32 0, i32 11
  %21 = load ptr, ptr %20, align 8
  %22 = icmp uge ptr %18, %21
  br i1 %22, label %23, label %35

23:                                               ; preds = %15
  %24 = load ptr, ptr %5, align 8
  %25 = getelementptr inbounds %struct._zval_struct, ptr %24, i32 0, i32 0
  %26 = load ptr, ptr %25, align 8
  %27 = load ptr, ptr %6, align 8
  %28 = getelementptr inbounds %struct._zend_persistent_script, ptr %27, i32 0, i32 11
  %29 = load ptr, ptr %28, align 8
  %30 = load ptr, ptr %6, align 8
  %31 = getelementptr inbounds %struct._zend_persistent_script, ptr %30, i32 0, i32 12
  %32 = load i64, ptr %31, align 8
  %33 = getelementptr inbounds i8, ptr %29, i64 %32
  %34 = icmp ule ptr %26, %33
  br i1 %34, label %55, label %35

35:                                               ; preds = %23, %15
  %36 = load ptr, ptr %5, align 8
  %37 = getelementptr inbounds %struct._zval_struct, ptr %36, i32 0, i32 0
  %38 = load ptr, ptr %37, align 8
  %39 = load ptr, ptr @accel_shared_globals, align 8
  %40 = getelementptr inbounds %struct._zend_accel_shared_globals, ptr %39, i32 0, i32 22
  %41 = getelementptr inbounds %struct._zend_string_table, ptr %40, i32 0, i32 2
  %42 = load ptr, ptr %41, align 8
  %43 = icmp uge ptr %38, %42
  br i1 %43, label %44, label %53

44:                                               ; preds = %35
  %45 = load ptr, ptr %5, align 8
  %46 = getelementptr inbounds %struct._zval_struct, ptr %45, i32 0, i32 0
  %47 = load ptr, ptr %46, align 8
  %48 = load ptr, ptr @accel_shared_globals, align 8
  %49 = getelementptr inbounds %struct._zend_accel_shared_globals, ptr %48, i32 0, i32 22
  %50 = getelementptr inbounds %struct._zend_string_table, ptr %49, i32 0, i32 3
  %51 = load ptr, ptr %50, align 8
  %52 = icmp ult ptr %47, %51
  br label %53

53:                                               ; preds = %44, %35
  %54 = phi i1 [ false, %35 ], [ %52, %44 ]
  br label %55

55:                                               ; preds = %53, %23
  %56 = phi i1 [ true, %23 ], [ %54, %53 ]
  call void @llvm.assume(i1 %56)
  %57 = load ptr, ptr %5, align 8
  %58 = getelementptr inbounds %struct._zval_struct, ptr %57, i32 0, i32 0
  %59 = load ptr, ptr %58, align 8
  %60 = load ptr, ptr %6, align 8
  %61 = getelementptr inbounds %struct._zend_persistent_script, ptr %60, i32 0, i32 11
  %62 = load ptr, ptr %61, align 8
  %63 = ptrtoint ptr %59 to i64
  %64 = ptrtoint ptr %62 to i64
  %65 = sub i64 %63, %64
  %66 = inttoptr i64 %65 to ptr
  %67 = load ptr, ptr %5, align 8
  %68 = getelementptr inbounds %struct._zval_struct, ptr %67, i32 0, i32 0
  store ptr %66, ptr %68, align 8
  br label %69

69:                                               ; preds = %55, %10
  br label %70

70:                                               ; preds = %69
  %71 = load ptr, ptr %5, align 8
  %72 = getelementptr inbounds %struct._zval_struct, ptr %71, i32 0, i32 0
  %73 = load ptr, ptr %72, align 8
  store ptr %73, ptr %9, align 8
  br label %74

74:                                               ; preds = %70
  %75 = load ptr, ptr %9, align 8
  %76 = icmp ne ptr %75, null
  br i1 %76, label %77, label %88

77:                                               ; preds = %74
  %78 = load ptr, ptr %9, align 8
  %79 = load ptr, ptr %6, align 8
  %80 = getelementptr inbounds %struct._zend_persistent_script, ptr %79, i32 0, i32 12
  %81 = load i64, ptr %80, align 8
  %82 = inttoptr i64 %81 to ptr
  %83 = icmp ule ptr %78, %82
  call void @llvm.assume(i1 %83)
  %84 = load ptr, ptr %8, align 8
  %85 = load ptr, ptr %9, align 8
  %86 = ptrtoint ptr %85 to i64
  %87 = getelementptr inbounds i8, ptr %84, i64 %86
  store ptr %87, ptr %9, align 8
  br label %88

88:                                               ; preds = %77, %74
  br label %89

89:                                               ; preds = %88
  %90 = load ptr, ptr %9, align 8
  %91 = load i8, ptr %90, align 8
  %92 = zext i8 %91 to i32
  %93 = icmp eq i32 %92, 2
  call void @llvm.assume(i1 %93)
  %94 = load ptr, ptr %9, align 8
  %95 = load ptr, ptr %6, align 8
  %96 = load ptr, ptr %7, align 8
  %97 = load ptr, ptr %8, align 8
  call void @zend_file_cache_serialize_op_array(ptr noundef %94, ptr noundef %95, ptr noundef %96, ptr noundef %97)
  ret void
}