; Function Attrs: nounwind uwtable
define internal void @zend_file_cache_serialize_func(ptr nocapture noundef %0, ptr noundef %1, ptr noundef %2, ptr noundef %3) #0 {
  %5 = load ptr, ptr %0, align 8
  %.not = icmp eq ptr %5, null
  br i1 %.not, label %27, label %6

6:                                                ; preds = %4
  %7 = getelementptr inbounds i8, ptr %1, i64 416
  %8 = load ptr, ptr %7, align 8
  %.not26 = icmp ult ptr %5, %8
  br i1 %.not26, label %13, label %9

9:                                                ; preds = %6
  %10 = getelementptr inbounds i8, ptr %1, i64 424
  %11 = load i64, ptr %10, align 8
  %12 = getelementptr inbounds i8, ptr %8, i64 %11
  %.not27 = icmp ugt ptr %5, %12
  br i1 %.not27, label %13, label %21

13:                                               ; preds = %9, %6
  %14 = load ptr, ptr @accel_shared_globals, align 8
  %15 = getelementptr inbounds i8, ptr %14, i64 176
  %16 = load ptr, ptr %15, align 8
  %.not28 = icmp ult ptr %5, %16
  br i1 %.not28, label %21, label %17

17:                                               ; preds = %13
  %18 = getelementptr inbounds i8, ptr %14, i64 184
  %19 = load ptr, ptr %18, align 8
  %20 = icmp ult ptr %5, %19
  br label %21

21:                                               ; preds = %13, %17, %9
  %22 = phi i1 [ true, %9 ], [ false, %13 ], [ %20, %17 ]
  tail call void @llvm.assume(i1 %22)
  %23 = ptrtoint ptr %5 to i64
  %24 = ptrtoint ptr %8 to i64
  %25 = sub i64 %23, %24
  %26 = inttoptr i64 %25 to ptr
  store ptr %26, ptr %0, align 8
  br label %27

27:                                               ; preds = %4, %21
  %28 = phi ptr [ null, %4 ], [ %26, %21 ]
  %29 = getelementptr inbounds i8, ptr %1, i64 424
  %30 = load i64, ptr %29, align 8
  %31 = inttoptr i64 %30 to ptr
  %32 = icmp ule ptr %28, %31
  tail call void @llvm.assume(i1 %32)
  %33 = ptrtoint ptr %28 to i64
  %34 = getelementptr inbounds i8, ptr %3, i64 %33
  %35 = load i8, ptr %34, align 8
  %36 = icmp eq i8 %35, 2
  tail call void @llvm.assume(i1 %36)
  tail call fastcc void @zend_file_cache_serialize_op_array(ptr noundef nonnull %34, ptr noundef %1, ptr noundef %2, ptr noundef %3)
  ret void
}